target datalayout = "e-m:e-p270:32:32-p271:32:32-p272:64:64-i64:64-i128:128-f80:128-n8:16:32:64-S128"
target triple = "x86_64-pc-linux-gnu"

%struct.expert_field = type { i32, i32 }
%struct.rlc_lte_info = type { i8, i8, i8, i8, i16, i16, i16, i16, i8, i32 }

@ei_rlc_lte_unknown_udp_framing_tag = internal global %struct.expert_field zeroinitializer, align 4
@ei_rlc_lte_missing_udp_framing_tag = internal global %struct.expert_field zeroinitializer, align 4
@.str.221 = private unnamed_addr constant [8 x i8] c"rlc-lte\00", align 1
@proto_rlc_lte = hidden global i32 0, align 4

; Function Attrs: null_pointer_is_valid sspstrong uwtable
define internal zeroext i1 @dissect_rlc_lte_heur(ptr noundef %0, ptr noundef %1, ptr noundef %2, ptr noundef %3) #0 {
  %5 = alloca i1, align 1
  %6 = alloca ptr, align 8
  %7 = alloca ptr, align 8
  %8 = alloca ptr, align 8
  %9 = alloca ptr, align 8
  %10 = alloca i32, align 4
  %11 = alloca ptr, align 8
  %12 = alloca ptr, align 8
  %13 = alloca i8, align 1
  %14 = alloca i8, align 1
  %15 = alloca i32, align 4
  store ptr %0, ptr %6, align 8
  store ptr %1, ptr %7, align 8
  store ptr %2, ptr %8, align 8
  store ptr %3, ptr %9, align 8
  call void @llvm.lifetime.start.p0(i64 4, ptr %10) #16
  store i32 0, ptr %10, align 4
  call void @llvm.lifetime.start.p0(i64 8, ptr %11) #16
  call void @llvm.lifetime.start.p0(i64 8, ptr %12) #16
  call void @llvm.lifetime.start.p0(i64 1, ptr %13) #16
  store i8 0, ptr %13, align 1
  call void @llvm.lifetime.start.p0(i64 1, ptr %14) #16
  store i8 0, ptr %14, align 1
  %16 = load ptr, ptr %6, align 8
  %17 = load i32, ptr %10, align 4
  %18 = call i32 @tvb_captured_length_remaining(ptr noundef %16, i32 noundef %17)
  %19 = icmp slt i32 %18, 10
  br i1 %19, label %20, label %21

20:                                               ; preds = %4
  store i1 false, ptr %5, align 1
  store i32 1, ptr %15, align 4
  br label %179

21:                                               ; preds = %4
  %22 = load ptr, ptr %6, align 8
  %23 = load i32, ptr %10, align 4
  %24 = call i32 @tvb_strneql(ptr noundef %22, i32 noundef %23, ptr noundef @.str.221, i64 noundef 7)
  %25 = icmp ne i32 %24, 0
  br i1 %25, label %26, label %27

26:                                               ; preds = %21
  store i1 false, ptr %5, align 1
  store i32 1, ptr %15, align 4
  br label %179

27:                                               ; preds = %21
  %28 = load i32, ptr %10, align 4
  %29 = add i32 %28, 7
  store i32 %29, ptr %10, align 4
  %30 = call ptr @wmem_file_scope()
  %31 = load ptr, ptr %7, align 8
  %32 = load i32, ptr @proto_rlc_lte, align 4
  %33 = call ptr @p_get_proto_data(ptr noundef %30, ptr noundef %31, i32 noundef %32, i32 noundef 0)
  store ptr %33, ptr %11, align 8
  %34 = load ptr, ptr %11, align 8
  %35 = icmp eq ptr %34, null
  br i1 %35, label %36, label %164

36:                                               ; preds = %27
  %37 = call ptr @wmem_file_scope()
  %38 = call noalias ptr @wmem_alloc0(ptr noundef %37, i64 noundef 20) #17
  store ptr %38, ptr %11, align 8
  %39 = load ptr, ptr %6, align 8
  %40 = load i32, ptr %10, align 4
  %41 = add i32 %40, 1
  store i32 %41, ptr %10, align 4
  %42 = call zeroext i8 @tvb_get_uint8(ptr noundef %39, i32 noundef %40)
  %43 = load ptr, ptr %11, align 8
  %44 = getelementptr inbounds nuw %struct.rlc_lte_info, ptr %43, i32 0, i32 0
  store i8 %42, ptr %44, align 4
  %45 = load ptr, ptr %11, align 8
  %46 = getelementptr inbounds nuw %struct.rlc_lte_info, ptr %45, i32 0, i32 0
  %47 = load i8, ptr %46, align 4
  %48 = zext i8 %47 to i32
  %49 = icmp eq i32 %48, 4
  br i1 %49, label %50, label %53

50:                                               ; preds = %36
  %51 = load ptr, ptr %11, align 8
  %52 = getelementptr inbounds nuw %struct.rlc_lte_info, ptr %51, i32 0, i32 3
  store i8 10, ptr %52, align 1
  br label %53

53:                                               ; preds = %50, %36
  br label %54

54:                                               ; preds = %140, %125, %53
  %55 = load i8, ptr %13, align 1
  %56 = zext i8 %55 to i32
  %57 = icmp ne i32 %56, 1
  br i1 %57, label %58, label %141

58:                                               ; preds = %54
  %59 = load ptr, ptr %6, align 8
  %60 = load i32, ptr %10, align 4
  %61 = add i32 %60, 1
  store i32 %61, ptr %10, align 4
  %62 = call zeroext i8 @tvb_get_uint8(ptr noundef %59, i32 noundef %60)
  store i8 %62, ptr %13, align 1
  %63 = load i8, ptr %13, align 1
  %64 = zext i8 %63 to i32
  switch i32 %64, label %132 [
    i32 2, label %65
    i32 3, label %73
    i32 4, label %81
    i32 5, label %89
    i32 6, label %97
    i32 7, label %105
    i32 8, label %113
    i32 9, label %116
    i32 1, label %125
  ]

65:                                               ; preds = %58
  %66 = load ptr, ptr %6, align 8
  %67 = load i32, ptr %10, align 4
  %68 = call zeroext i8 @tvb_get_uint8(ptr noundef %66, i32 noundef %67)
  %69 = load ptr, ptr %11, align 8
  %70 = getelementptr inbounds nuw %struct.rlc_lte_info, ptr %69, i32 0, i32 3
  store i8 %68, ptr %70, align 1
  %71 = load i32, ptr %10, align 4
  %72 = add i32 %71, 1
  store i32 %72, ptr %10, align 4
  store i8 1, ptr %14, align 1
  br label %140

73:                                               ; preds = %58
  %74 = load ptr, ptr %6, align 8
  %75 = load i32, ptr %10, align 4
  %76 = call zeroext i8 @tvb_get_uint8(ptr noundef %74, i32 noundef %75)
  %77 = load ptr, ptr %11, align 8
  %78 = getelementptr inbounds nuw %struct.rlc_lte_info, ptr %77, i32 0, i32 1
  store i8 %76, ptr %78, align 1
  %79 = load i32, ptr %10, align 4
  %80 = add i32 %79, 1
  store i32 %80, ptr %10, align 4
  br label %140

81:                                               ; preds = %58
  %82 = load ptr, ptr %6, align 8
  %83 = load i32, ptr %10, align 4
  %84 = call zeroext i8 @tvb_get_uint8(ptr noundef %82, i32 noundef %83)
  %85 = load ptr, ptr %11, align 8
  %86 = getelementptr inbounds nuw %struct.rlc_lte_info, ptr %85, i32 0, i32 2
  store i8 %84, ptr %86, align 2
  %87 = load i32, ptr %10, align 4
  %88 = add i32 %87, 1
  store i32 %88, ptr %10, align 4
  br label %140

89:                                               ; preds = %58
  %90 = load ptr, ptr %6, align 8
  %91 = load i32, ptr %10, align 4
  %92 = call zeroext i16 @tvb_get_ntohs(ptr noundef %90, i32 noundef %91)
  %93 = load ptr, ptr %11, align 8
  %94 = getelementptr inbounds nuw %struct.rlc_lte_info, ptr %93, i32 0, i32 4
  store i16 %92, ptr %94, align 4
  %95 = load i32, ptr %10, align 4
  %96 = add i32 %95, 2
  store i32 %96, ptr %10, align 4
  br label %140

97:                                               ; preds = %58
  %98 = load ptr, ptr %6, align 8
  %99 = load i32, ptr %10, align 4
  %100 = call zeroext i16 @tvb_get_ntohs(ptr noundef %98, i32 noundef %99)
  %101 = load ptr, ptr %11, align 8
  %102 = getelementptr inbounds nuw %struct.rlc_lte_info, ptr %101, i32 0, i32 5
  store i16 %100, ptr %102, align 2
  %103 = load i32, ptr %10, align 4
  %104 = add i32 %103, 2
  store i32 %104, ptr %10, align 4
  br label %140

105:                                              ; preds = %58
  %106 = load ptr, ptr %6, align 8
  %107 = load i32, ptr %10, align 4
  %108 = call zeroext i16 @tvb_get_ntohs(ptr noundef %106, i32 noundef %107)
  %109 = load ptr, ptr %11, align 8
  %110 = getelementptr inbounds nuw %struct.rlc_lte_info, ptr %109, i32 0, i32 6
  store i16 %108, ptr %110, align 4
  %111 = load i32, ptr %10, align 4
  %112 = add i32 %111, 2
  store i32 %112, ptr %10, align 4
  br label %140

113:                                              ; preds = %58
  %114 = load ptr, ptr %11, align 8
  %115 = getelementptr inbounds nuw %struct.rlc_lte_info, ptr %114, i32 0, i32 8
  store i8 1, ptr %115, align 4
  br label %140

116:                                              ; preds = %58
  %117 = load ptr, ptr %6, align 8
  %118 = load i32, ptr %10, align 4
  %119 = call zeroext i8 @tvb_get_uint8(ptr noundef %117, i32 noundef %118)
  %120 = zext i8 %119 to i32
  %121 = load ptr, ptr %11, align 8
  %122 = getelementptr inbounds nuw %struct.rlc_lte_info, ptr %121, i32 0, i32 9
  store i32 %120, ptr %122, align 4
  %123 = load i32, ptr %10, align 4
  %124 = add i32 %123, 1
  store i32 %124, ptr %10, align 4
  br label %140

125:                                              ; preds = %58
  %126 = load ptr, ptr %6, align 8
  %127 = load i32, ptr %10, align 4
  %128 = call i32 @tvb_reported_length_remaining(ptr noundef %126, i32 noundef %127)
  %129 = trunc i32 %128 to i16
  %130 = load ptr, ptr %11, align 8
  %131 = getelementptr inbounds nuw %struct.rlc_lte_info, ptr %130, i32 0, i32 7
  store i16 %129, ptr %131, align 2
  br label %54, !llvm.loop !13

132:                                              ; preds = %58
  %133 = load ptr, ptr %8, align 8
  %134 = load ptr, ptr %7, align 8
  %135 = load ptr, ptr %6, align 8
  %136 = load i32, ptr %10, align 4
  %137 = sub i32 %136, 1
  call void @report_heur_error(ptr noundef %133, ptr noundef %134, ptr noundef @ei_rlc_lte_unknown_udp_framing_tag, ptr noundef %135, i32 noundef %137, i32 noundef 1)
  %138 = call ptr @wmem_file_scope()
  %139 = load ptr, ptr %11, align 8
  call void @wmem_free(ptr noundef %138, ptr noundef %139)
  store i1 true, ptr %5, align 1
  store i32 1, ptr %15, align 4
  br label %179

140:                                              ; preds = %116, %113, %105, %97, %89, %81, %73, %65
  br label %54, !llvm.loop !13

141:                                              ; preds = %54
  %142 = load ptr, ptr %11, align 8
  %143 = getelementptr inbounds nuw %struct.rlc_lte_info, ptr %142, i32 0, i32 0
  %144 = load i8, ptr %143, align 4
  %145 = zext i8 %144 to i32
  %146 = icmp eq i32 %145, 2
  br i1 %146, label %147, label %159

147:                                              ; preds = %141
  %148 = load i8, ptr %14, align 1, !range !6, !noundef !7
  %149 = trunc i8 %148 to i1
  %150 = zext i1 %149 to i32
  %151 = icmp eq i32 %150, 0
  br i1 %151, label %152, label %159

152:                                              ; preds = %147
  %153 = load ptr, ptr %8, align 8
  %154 = load ptr, ptr %7, align 8
  %155 = load ptr, ptr %6, align 8
  %156 = load i32, ptr %10, align 4
  call void @report_heur_error(ptr noundef %153, ptr noundef %154, ptr noundef @ei_rlc_lte_missing_udp_framing_tag, ptr noundef %155, i32 noundef 0, i32 noundef %156)
  %157 = call ptr @wmem_file_scope()
  %158 = load ptr, ptr %11, align 8
  call void @wmem_free(ptr noundef %157, ptr noundef %158)
  store i1 true, ptr %5, align 1
  store i32 1, ptr %15, align 4
  br label %179

159:                                              ; preds = %147, %141
  %160 = call ptr @wmem_file_scope()
  %161 = load ptr, ptr %7, align 8
  %162 = load i32, ptr @proto_rlc_lte, align 4
  %163 = load ptr, ptr %11, align 8
  call void @p_add_proto_data(ptr noundef %160, ptr noundef %161, i32 noundef %162, i32 noundef 0, ptr noundef %163)
  br label %172

164:                                              ; preds = %27
  %165 = load ptr, ptr %6, align 8
  %166 = call i32 @tvb_reported_length(ptr noundef %165)
  %167 = load ptr, ptr %11, align 8
  %168 = getelementptr inbounds nuw %struct.rlc_lte_info, ptr %167, i32 0, i32 7
  %169 = load i16, ptr %168, align 2
  %170 = zext i16 %169 to i32
  %171 = sub i32 %166, %170
  store i32 %171, ptr %10, align 4
  br label %172

172:                                              ; preds = %164, %159
  %173 = load ptr, ptr %6, align 8
  %174 = load i32, ptr %10, align 4
  %175 = call ptr @tvb_new_subset_remaining(ptr noundef %173, i32 noundef %174)
  store ptr %175, ptr %12, align 8
  %176 = load ptr, ptr %12, align 8
  %177 = load ptr, ptr %7, align 8
  %178 = load ptr, ptr %8, align 8
  call void @dissect_rlc_lte_common(ptr noundef %176, ptr noundef %177, ptr noundef %178, i1 noundef zeroext true)
  store i1 true, ptr %5, align 1
  store i32 1, ptr %15, align 4
  br label %179

179:                                              ; preds = %172, %152, %132, %26, %20
  call void @llvm.lifetime.end.p0(i64 1, ptr %14) #16
  call void @llvm.lifetime.end.p0(i64 1, ptr %13) #16
  call void @llvm.lifetime.end.p0(i64 8, ptr %12) #16
  call void @llvm.lifetime.end.p0(i64 8, ptr %11) #16
  call void @llvm.lifetime.end.p0(i64 4, ptr %10) #16
  %180 = load i1, ptr %5, align 1
  ret i1 %180
}