; Function Attrs: null_pointer_is_valid sspstrong uwtable
define internal noundef zeroext i1 @dissect_rlc_lte_heur(ptr noundef %0, ptr noundef %1, ptr noundef %2, ptr readnone captures(none) %3) #0 {
  %5 = tail call i32 @tvb_captured_length_remaining(ptr noundef %0, i32 noundef 0)
  %6 = icmp slt i32 %5, 10
  br i1 %6, label %74, label %7

7:                                                ; preds = %4
  %8 = tail call i32 @tvb_strneql(ptr noundef %0, i32 noundef 0, ptr noundef nonnull @.str.221, i64 noundef 7)
  %.not = icmp eq i32 %8, 0
  br i1 %.not, label %9, label %74

9:                                                ; preds = %7
  %10 = tail call ptr @wmem_file_scope()
  %11 = load i32, ptr @proto_rlc_lte, align 4
  %12 = tail call ptr @p_get_proto_data(ptr noundef %10, ptr noundef %1, i32 noundef %11, i32 noundef 0)
  %13 = icmp eq ptr %12, null
  br i1 %13, label %14, label %66

14:                                               ; preds = %9
  %15 = tail call ptr @wmem_file_scope()
  %16 = tail call noalias dereferenceable_or_null(20) ptr @wmem_alloc0(ptr noundef %15, i64 noundef 20) #18
  %17 = tail call zeroext i8 @tvb_get_uint8(ptr noundef %0, i32 noundef 7)
  store i8 %17, ptr %16, align 4
  %18 = icmp eq i8 %17, 4
  br i1 %18, label %19, label %.split156

19:                                               ; preds = %14
  %20 = getelementptr inbounds nuw i8, ptr %16, i64 3
  store i8 10, ptr %20, align 1
  br label %.split156

.split156:                                        ; preds = %14, %19
  %21 = getelementptr inbounds nuw i8, ptr %16, i64 16
  %22 = getelementptr inbounds nuw i8, ptr %16, i64 12
  %23 = getelementptr inbounds nuw i8, ptr %16, i64 8
  %24 = getelementptr inbounds nuw i8, ptr %16, i64 6
  %25 = getelementptr inbounds nuw i8, ptr %16, i64 4
  %26 = getelementptr inbounds nuw i8, ptr %16, i64 2
  %27 = getelementptr inbounds nuw i8, ptr %16, i64 1
  %28 = getelementptr inbounds nuw i8, ptr %16, i64 3
  br label %.lr.ph

.lr.ph:                                           ; preds = %.lr.ph.backedge, %.split156
  %.0.ph158 = phi i8 [ 0, %.split156 ], [ %.0.ph158.be, %.lr.ph.backedge ]
  %.071.ph157 = phi i32 [ 8, %.split156 ], [ %.071.ph157.be, %.lr.ph.backedge ]
  %29 = add i32 %.071.ph157, 1
  %30 = tail call zeroext i8 @tvb_get_uint8(ptr noundef %0, i32 noundef %.071.ph157)
  switch i8 %30, label %.split.us [
    i8 2, label %.split109.us
    i8 3, label %.split114.us
    i8 4, label %.split119.us
    i8 5, label %.split124.us
    i8 6, label %.split129.us
    i8 7, label %.split134.us
    i8 8, label %.split139.us
    i8 9, label %.split143.us
    i8 1, label %.outer._crit_edge
  ]

.split109.us:                                     ; preds = %.lr.ph
  %31 = tail call zeroext i8 @tvb_get_uint8(ptr noundef %0, i32 noundef %29)
  store i8 %31, ptr %28, align 1
  %32 = add i32 %.071.ph157, 2
  br label %.lr.ph.backedge

.split114.us:                                     ; preds = %.lr.ph
  %33 = tail call zeroext i8 @tvb_get_uint8(ptr noundef %0, i32 noundef %29)
  store i8 %33, ptr %27, align 1
  %34 = add i32 %.071.ph157, 2
  br label %.lr.ph.backedge

.split119.us:                                     ; preds = %.lr.ph
  %35 = tail call zeroext i8 @tvb_get_uint8(ptr noundef %0, i32 noundef %29)
  store i8 %35, ptr %26, align 2
  %36 = add i32 %.071.ph157, 2
  br label %.lr.ph.backedge

.split124.us:                                     ; preds = %.lr.ph
  %37 = tail call zeroext i16 @tvb_get_ntohs(ptr noundef %0, i32 noundef %29)
  store i16 %37, ptr %25, align 4
  %38 = add i32 %.071.ph157, 3
  br label %.lr.ph.backedge

.split129.us:                                     ; preds = %.lr.ph
  %39 = tail call zeroext i16 @tvb_get_ntohs(ptr noundef %0, i32 noundef %29)
  store i16 %39, ptr %24, align 2
  %40 = add i32 %.071.ph157, 3
  br label %.lr.ph.backedge

.split134.us:                                     ; preds = %.lr.ph
  %41 = tail call zeroext i16 @tvb_get_ntohs(ptr noundef %0, i32 noundef %29)
  store i16 %41, ptr %23, align 4
  %42 = add i32 %.071.ph157, 3
  br label %.lr.ph.backedge

.split139.us:                                     ; preds = %.lr.ph
  store i8 1, ptr %22, align 4
  br label %.lr.ph.backedge

.split143.us:                                     ; preds = %.lr.ph
  %43 = tail call zeroext i8 @tvb_get_uint8(ptr noundef %0, i32 noundef %29)
  %44 = zext i8 %43 to i32
  store i32 %44, ptr %21, align 4
  %45 = add i32 %.071.ph157, 2
  br label %.lr.ph.backedge

.lr.ph.backedge:                                  ; preds = %.split143.us, %.split139.us, %.split134.us, %.split129.us, %.split124.us, %.split119.us, %.split114.us, %.split109.us
  %.0.ph158.be = phi i8 [ %.0.ph158, %.split143.us ], [ %.0.ph158, %.split139.us ], [ %.0.ph158, %.split134.us ], [ %.0.ph158, %.split129.us ], [ %.0.ph158, %.split124.us ], [ %.0.ph158, %.split119.us ], [ %.0.ph158, %.split114.us ], [ 1, %.split109.us ]
  %.071.ph157.be = phi i32 [ %45, %.split143.us ], [ %29, %.split139.us ], [ %42, %.split134.us ], [ %40, %.split129.us ], [ %38, %.split124.us ], [ %36, %.split119.us ], [ %34, %.split114.us ], [ %32, %.split109.us ]
  br label %.lr.ph, !llvm.loop !11

.split.us:                                        ; preds = %.lr.ph
  tail call fastcc void @report_heur_error(ptr noundef %2, ptr noundef %1, ptr noundef nonnull @ei_rlc_lte_unknown_udp_framing_tag, ptr noundef %0, i32 noundef %.071.ph157, i32 noundef 1)
  %46 = tail call ptr @wmem_file_scope()
  tail call void @wmem_free(ptr noundef %46, ptr noundef %16)
  br label %74

.outer._crit_edge:                                ; preds = %.lr.ph
  %47 = getelementptr inbounds nuw i8, ptr %16, i64 10
  %48 = tail call i32 @tvb_reported_length_remaining(ptr noundef %0, i32 noundef %29)
  %49 = trunc i32 %48 to i16
  store i16 %49, ptr %47, align 2
  %50 = load i8, ptr %16, align 4
  %51 = icmp eq i8 %50, 2
  %52 = icmp eq i8 %.0.ph158, 0
  %or.cond = select i1 %51, i1 %52, i1 false
  br i1 %or.cond, label %53, label %63

53:                                               ; preds = %.outer._crit_edge
  %54 = getelementptr inbounds nuw i8, ptr %1, i64 8
  %55 = load ptr, ptr %54, align 8
  tail call void @col_set_str(ptr noundef %55, i32 noundef 35, ptr noundef nonnull @.str.220)
  %56 = load ptr, ptr %54, align 8
  tail call void @col_clear(ptr noundef %56, i32 noundef 25)
  %57 = load i32, ptr @proto_rlc_lte, align 4
  %58 = tail call ptr @proto_tree_add_item(ptr noundef %2, i32 noundef %57, ptr noundef %0, i32 noundef 0, i32 noundef -1, i32 noundef 0)
  %59 = load i32, ptr @ett_rlc_lte, align 4
  %60 = tail call ptr @proto_item_add_subtree(ptr noundef %58, i32 noundef %59)
  %61 = tail call ptr @proto_tree_add_expert(ptr noundef %60, ptr noundef %1, ptr noundef nonnull @ei_rlc_lte_missing_udp_framing_tag, ptr noundef %0, i32 noundef 0, i32 noundef %29)
  %62 = tail call ptr @wmem_file_scope()
  tail call void @wmem_free(ptr noundef %62, ptr noundef %16)
  br label %74

63:                                               ; preds = %.outer._crit_edge
  %64 = tail call ptr @wmem_file_scope()
  %65 = load i32, ptr @proto_rlc_lte, align 4
  tail call void @p_add_proto_data(ptr noundef %64, ptr noundef %1, i32 noundef %65, i32 noundef 0, ptr noundef %16)
  br label %72

66:                                               ; preds = %9
  %67 = tail call i32 @tvb_reported_length(ptr noundef %0)
  %68 = getelementptr inbounds nuw i8, ptr %12, i64 10
  %69 = load i16, ptr %68, align 2
  %70 = zext i16 %69 to i32
  %71 = sub i32 %67, %70
  br label %72

72:                                               ; preds = %66, %63
  %.2 = phi i32 [ %29, %63 ], [ %71, %66 ]
  %73 = tail call ptr @tvb_new_subset_remaining(ptr noundef %0, i32 noundef %.2)
  tail call fastcc void @dissect_rlc_lte_common(ptr noundef %73, ptr noundef %1, ptr noundef %2, i1 noundef zeroext true)
  br label %74

74:                                               ; preds = %7, %4, %72, %53, %.split.us
  %.070 = phi i1 [ true, %.split.us ], [ true, %53 ], [ true, %72 ], [ false, %4 ], [ false, %7 ]
  ret i1 %.070
}